#中断服务程序在0x00000a78
tmp/rv32-instr.bin:     file format binary


Disassembly of section .data:

00000000 <.data>:
   0:	ff010113          	addi	x2,x2,-16
   4:	00112623          	sw	x1,12(x2)
   8:	00812423          	sw	x8,8(x2)
   c:	01010413          	addi	x8,x2,16
  10:	40000113          	addi	x2,x0,1024
  14:	234000ef          	jal	x1,0x248
  18:	2c0000ef          	jal	x1,0x2d8
  1c:	404000ef          	jal	x1,0x420
  20:	474000ef          	jal	x1,0x494
  24:	634000ef          	jal	x1,0x658
  28:	1fd000ef          	jal	x1,0xa24
  2c:	060000ef          	jal	x1,0x8c
  30:	00000793          	addi	x15,x0,0
  34:	00078513          	addi	x10,x15,0
  38:	00c12083          	lw	x1,12(x2)
  3c:	00812403          	lw	x8,8(x2)
  40:	01010113          	addi	x2,x2,16
  44:	00008067          	jalr	x0,0(x1)
  48:	fe010113          	addi	x2,x2,-32
  4c:	00812e23          	sw	x8,28(x2)
  50:	02010413          	addi	x8,x2,32
  54:	fea42623          	sw	x10,-20(x8)
  58:	fec42783          	lw	x15,-20(x8)
  5c:	4017d793          	srai	x15,x15,0x1
  60:	fef42623          	sw	x15,-20(x8)
  64:	00000013          	addi	x0,x0,0
  68:	fec42783          	lw	x15,-20(x8)
  6c:	fff78713          	addi	x14,x15,-1
  70:	fee42623          	sw	x14,-20(x8)
  74:	fe079ae3          	bne	x15,x0,0x68
  78:	00000013          	addi	x0,x0,0
  7c:	00000013          	addi	x0,x0,0
  80:	01c12403          	lw	x8,28(x2)
  84:	02010113          	addi	x2,x2,32
  88:	00008067          	jalr	x0,0(x1)
  8c:	fd010113          	addi	x2,x2,-48
  90:	02112623          	sw	x1,44(x2)
  94:	02812423          	sw	x8,40(x2)
  98:	02912223          	sw	x9,36(x2)
  9c:	03212023          	sw	x18,32(x2)
  a0:	01312e23          	sw	x19,28(x2)
  a4:	01412c23          	sw	x20,24(x2)
  a8:	01512a23          	sw	x21,20(x2)
  ac:	03010413          	addi	x8,x2,48
  b0:	000027b7          	lui	x15,0x2
  b4:	a7878793          	addi	x15,x15,-1416 # 0x1a78
  b8:	0007a603          	lw	x12,0(x15)
  bc:	0047a683          	lw	x13,4(x15)
  c0:	0087a703          	lw	x14,8(x15)
  c4:	00c7a783          	lw	x15,12(x15)
  c8:	fcc42823          	sw	x12,-48(x8)
  cc:	fcd42a23          	sw	x13,-44(x8)
  d0:	fce42c23          	sw	x14,-40(x8)
  d4:	fcf42e23          	sw	x15,-36(x8)
  d8:	00000913          	addi	x18,x0,0
  dc:	00000a13          	addi	x20,x0,0
  e0:	0ff00993          	addi	x19,x0,255
  e4:	00000493          	addi	x9,x0,0
  e8:	00100a93          	addi	x21,x0,1
  ec:	00100793          	addi	x15,x0,1
  f0:	00f49463          	bne	x9,x15,0xf8
  f4:	01000913          	addi	x18,x0,16
  f8:	00200793          	addi	x15,x0,2
  fc:	00f49463          	bne	x9,x15,0x104
 100:	03000913          	addi	x18,x0,48
 104:	00300793          	addi	x15,x0,3
 108:	00f49463          	bne	x9,x15,0x110
 10c:	03100913          	addi	x18,x0,49
 110:	00400793          	addi	x15,x0,4
 114:	00f49463          	bne	x9,x15,0x11c
 118:	03300913          	addi	x18,x0,51
 11c:	00500793          	addi	x15,x0,5
 120:	00f49463          	bne	x9,x15,0x128
 124:	07300913          	addi	x18,x0,115
 128:	00600793          	addi	x15,x0,6
 12c:	00f49463          	bne	x9,x15,0x134
 130:	07700913          	addi	x18,x0,119
 134:	00700793          	addi	x15,x0,7
 138:	00f49463          	bne	x9,x15,0x140
 13c:	00100a13          	addi	x20,x0,1
 140:	00800793          	addi	x15,x0,8
 144:	00f49463          	bne	x9,x15,0x14c
 148:	02100a13          	addi	x20,x0,33
 14c:	00900793          	addi	x15,x0,9
 150:	00f49463          	bne	x9,x15,0x158
 154:	03100a13          	addi	x20,x0,49
 158:	00a00793          	addi	x15,x0,10
 15c:	00f49463          	bne	x9,x15,0x164
 160:	03900a13          	addi	x20,x0,57
 164:	00b00793          	addi	x15,x0,11
 168:	00f49463          	bne	x9,x15,0x170
 16c:	00000993          	addi	x19,x0,0
 170:	00c00793          	addi	x15,x0,12
 174:	00f49463          	bne	x9,x15,0x17c
 178:	0ff00993          	addi	x19,x0,255
 17c:	00d00793          	addi	x15,x0,13
 180:	00f49463          	bne	x9,x15,0x188
 184:	00000993          	addi	x19,x0,0
 188:	00e00793          	addi	x15,x0,14
 18c:	00f49463          	bne	x9,x15,0x194
 190:	0ff00993          	addi	x19,x0,255
 194:	00048793          	addi	x15,x9,0
 198:	00178493          	addi	x9,x15,1
 19c:	01100713          	addi	x14,x0,17
 1a0:	00e79c63          	bne	x15,x14,0x1b8
 1a4:	00000a13          	addi	x20,x0,0
 1a8:	000a0913          	addi	x18,x20,0
 1ac:	0ff00993          	addi	x19,x0,255
 1b0:	00000493          	addi	x9,x0,0
 1b4:	fffa8a93          	addi	x21,x21,-1
 1b8:	00000093          	addi	x1,x0,0
 1bc:	01397733          	and	x14,x18,x19
 1c0:	001a8793          	addi	x15,x21,1
 1c4:	00379793          	slli	x15,x15,0x3
 1c8:	0187f793          	andi	x15,x15,24
 1cc:	00f717b3          	sll	x15,x14,x15
 1d0:	00f0e0b3          	or	x1,x1,x15
 1d4:	013a7733          	and	x14,x20,x19
 1d8:	003a9793          	slli	x15,x21,0x3
 1dc:	0187f793          	andi	x15,x15,24
 1e0:	00f717b3          	sll	x15,x14,x15
 1e4:	00f0e0b3          	or	x1,x1,x15
 1e8:	e00007b7          	lui	x15,0xe0000
 1ec:	fff0c713          	xori	x14,x1,-1
 1f0:	00e7a023          	sw	x14,0(x15) # 0xe0000000
 1f4:	0007a7b7          	lui	x15,0x7a
 1f8:	12078513          	addi	x10,x15,288 # 0x7a120
 1fc:	e4dff0ef          	jal	x1,0x48
 200:	eedff06f          	jal	x0,0xec
 204:	f0000737          	lui	x14,0xf0000
 208:	00402783          	lw	x15,4(x0) # 0x4
 20c:	00e7e7b3          	or	x15,x15,x14
 210:	e0000737          	lui	x14,0xe0000
 214:	00f72023          	sw	x15,0(x14) # 0xe0000000
 218:	0000006f          	jal	x0,0x218
 21c:	00a50513          	addi	x10,x10,10
 220:	00351793          	slli	x15,x10,0x3
 224:	00a7e7b3          	or	x15,x15,x10
 228:	fb9bd737          	lui	x14,0xfb9bd
 22c:	e9770713          	addi	x14,x14,-361 # 0xfb9bce97
 230:	00e787b3          	add	x15,x15,x14
 234:	4057d713          	srai	x14,x15,0x5
 238:	40e787b3          	sub	x15,x15,x14
 23c:	0057d513          	srli	x10,x15,0x5
 240:	00f50533          	add	x10,x10,x15
 244:	00008067          	jalr	x0,0(x1)
 248:	ff010113          	addi	x2,x2,-16
 24c:	00112623          	sw	x1,12(x2)
 250:	e0000737          	lui	x14,0xe0000
 254:	001117b7          	lui	x15,0x111
 258:	10078793          	addi	x15,x15,256 # 0x111100
 25c:	00f72023          	sw	x15,0(x14) # 0xe0000000
 260:	aaaab7b7          	lui	x15,0xaaaab
 264:	aa178793          	addi	x15,x15,-1375 # 0xaaaaaaa1
 268:	00f02223          	sw	x15,4(x0) # 0x4
 26c:	0066d537          	lui	x10,0x66d
 270:	cff50513          	addi	x10,x10,-769 # 0x66ccff
 274:	fa9ff0ef          	jal	x1,0x21c
 278:	0712f7b7          	lui	x15,0x712f
 27c:	73178793          	addi	x15,x15,1841 # 0x712f731
 280:	00f51863          	bne	x10,x15,0x290
 284:	00c12083          	lw	x1,12(x2)
 288:	01010113          	addi	x2,x2,16
 28c:	00008067          	jalr	x0,0(x1)
 290:	f75ff0ef          	jal	x1,0x204
 294:	00051703          	lh	x14,0(x10)
 298:	00255783          	lhu	x15,2(x10)
 29c:	00f747b3          	xor	x15,x14,x15
 2a0:	40175713          	srai	x14,x14,0x1
 2a4:	00e7c7b3          	xor	x15,x15,x14
 2a8:	00f51123          	sh	x15,2(x10)
 2ac:	00052783          	lw	x15,0(x10)
 2b0:	0001c737          	lui	x14,0x1c
 2b4:	f5270713          	addi	x14,x14,-174 # 0x1bf52
 2b8:	00e7c7b3          	xor	x15,x15,x14
 2bc:	00f52023          	sw	x15,0(x10)
 2c0:	4107d713          	srai	x14,x15,0x10
 2c4:	0107d793          	srli	x15,x15,0x10
 2c8:	0ff7f793          	andi	x15,x15,255
 2cc:	40f707b3          	sub	x15,x14,x15
 2d0:	00f52223          	sw	x15,4(x10)
 2d4:	00008067          	jalr	x0,0(x1)
 2d8:	ff010113          	addi	x2,x2,-16
 2dc:	00112623          	sw	x1,12(x2)
 2e0:	00912423          	sw	x9,8(x2)
 2e4:	e0000737          	lui	x14,0xe0000
 2e8:	002227b7          	lui	x15,0x222
 2ec:	20078793          	addi	x15,x15,512 # 0x222200
 2f0:	00f72023          	sw	x15,0(x14) # 0xe0000000
 2f4:	00400713          	addi	x14,x0,4
 2f8:	00072783          	lw	x15,0(x14)
 2fc:	00479793          	slli	x15,x15,0x4
 300:	0027e793          	ori	x15,x15,2
 304:	00f72023          	sw	x15,0(x14)
 308:	00800493          	addi	x9,x0,8
 30c:	06100793          	addi	x15,x0,97
 310:	00f48023          	sb	x15,0(x9)
 314:	02900793          	addi	x15,x0,41
 318:	00f004a3          	sb	x15,9(x0) # 0x9
 31c:	07800793          	addi	x15,x0,120
 320:	00f00523          	sb	x15,10(x0) # 0xa
 324:	05f00793          	addi	x15,x0,95
 328:	00f005a3          	sb	x15,11(x0) # 0xb
 32c:	00800513          	addi	x10,x0,8
 330:	f65ff0ef          	jal	x1,0x294
 334:	0004a703          	lw	x14,0(x9)
 338:	62a897b7          	lui	x15,0x62a89
 33c:	63378793          	addi	x15,x15,1587 # 0x62a89633
 340:	02f71263          	bne	x14,x15,0x364
 344:	00c02703          	lw	x14,12(x0) # 0xc
 348:	000067b7          	lui	x15,0x6
 34c:	20078793          	addi	x15,x15,512 # 0x6200
 350:	00f71c63          	bne	x14,x15,0x368
 354:	00c12083          	lw	x1,12(x2)
 358:	00812483          	lw	x9,8(x2)
 35c:	01010113          	addi	x2,x2,16
 360:	00008067          	jalr	x0,0(x1)
 364:	ea1ff0ef          	jal	x1,0x204
 368:	e9dff0ef          	jal	x1,0x204
 36c:	00050793          	addi	x15,x10,0
 370:	02058663          	beq	x11,x0,0x39c
 374:	00000513          	addi	x10,x0,0
 378:	0100006f          	jal	x0,0x388
 37c:	00179793          	slli	x15,x15,0x1
 380:	4015d593          	srai	x11,x11,0x1
 384:	00058a63          	beq	x11,x0,0x398
 388:	0015f713          	andi	x14,x11,1
 38c:	fe0708e3          	beq	x14,x0,0x37c
 390:	00f50533          	add	x10,x10,x15
 394:	fe9ff06f          	jal	x0,0x37c
 398:	00008067          	jalr	x0,0(x1)
 39c:	00058513          	addi	x10,x11,0
 3a0:	00008067          	jalr	x0,0(x1)
 3a4:	fe010113          	addi	x2,x2,-32
 3a8:	00112e23          	sw	x1,28(x2)
 3ac:	00912c23          	sw	x9,24(x2)
 3b0:	01212a23          	sw	x18,20(x2)
 3b4:	01312823          	sw	x19,16(x2)
 3b8:	01412623          	sw	x20,12(x2)
 3bc:	00100a13          	addi	x20,x0,1
 3c0:	04050063          	beq	x10,x0,0x400
 3c4:	00050993          	addi	x19,x10,0
 3c8:	00000a13          	addi	x20,x0,0
 3cc:	02a05a63          	bge	x0,x10,0x400
 3d0:	00100493          	addi	x9,x0,1
 3d4:	fff48513          	addi	x10,x9,-1
 3d8:	fcdff0ef          	jal	x1,0x3a4
 3dc:	00050913          	addi	x18,x10,0
 3e0:	40998533          	sub	x10,x19,x9
 3e4:	fc1ff0ef          	jal	x1,0x3a4
 3e8:	00050593          	addi	x11,x10,0
 3ec:	00090513          	addi	x10,x18,0
 3f0:	f7dff0ef          	jal	x1,0x36c
 3f4:	00aa0a33          	add	x20,x20,x10
 3f8:	00148493          	addi	x9,x9,1
 3fc:	fc99dce3          	bge	x19,x9,0x3d4
 400:	000a0513          	addi	x10,x20,0
 404:	01c12083          	lw	x1,28(x2)
 408:	01812483          	lw	x9,24(x2)
 40c:	01412903          	lw	x18,20(x2)
 410:	01012983          	lw	x19,16(x2)
 414:	00c12a03          	lw	x20,12(x2)
 418:	02010113          	addi	x2,x2,32
 41c:	00008067          	jalr	x0,0(x1)
 420:	ff010113          	addi	x2,x2,-16
 424:	00112623          	sw	x1,12(x2)
 428:	e0000737          	lui	x14,0xe0000
 42c:	003337b7          	lui	x15,0x333
 430:	30078793          	addi	x15,x15,768 # 0x333300
 434:	00f72023          	sw	x15,0(x14) # 0xe0000000
 438:	00400713          	addi	x14,x0,4
 43c:	00072783          	lw	x15,0(x14)
 440:	00479793          	slli	x15,x15,0x4
 444:	0037e793          	ori	x15,x15,3
 448:	00f72023          	sw	x15,0(x14)
 44c:	00500513          	addi	x10,x0,5
 450:	f55ff0ef          	jal	x1,0x3a4
 454:	02a00793          	addi	x15,x0,42
 458:	00f51863          	bne	x10,x15,0x468
 45c:	00c12083          	lw	x1,12(x2)
 460:	01010113          	addi	x2,x2,16
 464:	00008067          	jalr	x0,0(x1)
 468:	d9dff0ef          	jal	x1,0x204
 46c:	01f00793          	addi	x15,x0,31
 470:	00c0006f          	jal	x0,0x47c
 474:	fff78793          	addi	x15,x15,-1
 478:	00078c63          	beq	x15,x0,0x490
 47c:	40f55733          	sra	x14,x10,x15
 480:	feb74ae3          	blt	x14,x11,0x474
 484:	00f59733          	sll	x14,x11,x15
 488:	40e50533          	sub	x10,x10,x14
 48c:	fe9ff06f          	jal	x0,0x474
 490:	00008067          	jalr	x0,0(x1)
 494:	fd010113          	addi	x2,x2,-48
 498:	02112623          	sw	x1,44(x2)
 49c:	02912423          	sw	x9,40(x2)
 4a0:	03212223          	sw	x18,36(x2)
 4a4:	03312023          	sw	x19,32(x2)
 4a8:	01412e23          	sw	x20,28(x2)
 4ac:	01512c23          	sw	x21,24(x2)
 4b0:	01612a23          	sw	x22,20(x2)
 4b4:	01712823          	sw	x23,16(x2)
 4b8:	01812623          	sw	x24,12(x2)
 4bc:	e0000737          	lui	x14,0xe0000
 4c0:	004447b7          	lui	x15,0x444
 4c4:	40078793          	addi	x15,x15,1024 # 0x444400
 4c8:	00f72023          	sw	x15,0(x14) # 0xe0000000
 4cc:	00400713          	addi	x14,x0,4
 4d0:	00072783          	lw	x15,0(x14)
 4d4:	00479793          	slli	x15,x15,0x4
 4d8:	0047e793          	ori	x15,x15,4
 4dc:	00f72023          	sw	x15,0(x14)
 4e0:	06400c13          	addi	x24,x0,100
 4e4:	41400b13          	addi	x22,x0,1044
 4e8:	02a00a13          	addi	x20,x0,42
 4ec:	05800993          	addi	x19,x0,88
 4f0:	39000913          	addi	x18,x0,912
 4f4:	0ee00493          	addi	x9,x0,238
 4f8:	00002ab7          	lui	x21,0x2
 4fc:	717a8a93          	addi	x21,x21,1815 # 0x2717
 500:	fffffbb7          	lui	x23,0xfffff
 504:	c75b8b93          	addi	x23,x23,-907 # 0xffffec75
 508:	0880006f          	jal	x0,0x590
 50c:	00490913          	addi	x18,x18,4
 510:	01548533          	add	x10,x9,x21
 514:	00050593          	addi	x11,x10,0
 518:	e55ff0ef          	jal	x1,0x36c
 51c:	000a8593          	addi	x11,x21,0
 520:	f4dff0ef          	jal	x1,0x46c
 524:	017504b3          	add	x9,x10,x23
 528:	01590533          	add	x10,x18,x21
 52c:	00050593          	addi	x11,x10,0
 530:	e3dff0ef          	jal	x1,0x36c
 534:	000a8593          	addi	x11,x21,0
 538:	f35ff0ef          	jal	x1,0x46c
 53c:	01750933          	add	x18,x10,x23
 540:	01598533          	add	x10,x19,x21
 544:	00050593          	addi	x11,x10,0
 548:	e25ff0ef          	jal	x1,0x36c
 54c:	000a8593          	addi	x11,x21,0
 550:	f1dff0ef          	jal	x1,0x46c
 554:	017509b3          	add	x19,x10,x23
 558:	015a0533          	add	x10,x20,x21
 55c:	00050593          	addi	x11,x10,0
 560:	e0dff0ef          	jal	x1,0x36c
 564:	000a8593          	addi	x11,x21,0
 568:	f05ff0ef          	jal	x1,0x46c
 56c:	01750a33          	add	x20,x10,x23
 570:	015b0533          	add	x10,x22,x21
 574:	00050593          	addi	x11,x10,0
 578:	df5ff0ef          	jal	x1,0x36c
 57c:	000a8593          	addi	x11,x21,0
 580:	eedff0ef          	jal	x1,0x46c
 584:	01750b33          	add	x22,x10,x23
 588:	fffc0c13          	addi	x24,x24,-1
 58c:	080c0063          	beq	x24,x0,0x60c
 590:	0014f793          	andi	x15,x9,1
 594:	04078263          	beq	x15,x0,0x5d8
 598:	00994663          	blt	x18,x9,0x5a4
 59c:	016a7663          	bgeu	x20,x22,0x5a8
 5a0:	009a5463          	bge	x20,x9,0x5a8
 5a4:	00398993          	addi	x19,x19,3
 5a8:	0144d463          	bge	x9,x20,0x5b0
 5ac:	0169e463          	bltu	x19,x22,0x5b4
 5b0:	01395463          	bge	x18,x19,0x5b8
 5b4:	00548493          	addi	x9,x9,5
 5b8:	01495863          	bge	x18,x20,0x5c8
 5bc:	0134f663          	bgeu	x9,x19,0x5c8
 5c0:	012b5463          	bge	x22,x18,0x5c8
 5c4:	002b0b13          	addi	x22,x22,2
 5c8:	f49a42e3          	blt	x20,x9,0x50c
 5cc:	f53b60e3          	bltu	x22,x19,0x50c
 5d0:	f52a50e3          	bge	x20,x18,0x510
 5d4:	f39ff06f          	jal	x0,0x50c
 5d8:	0164d863          	bge	x9,x22,0x5e8
 5dc:	01497663          	bgeu	x18,x20,0x5e8
 5e0:	0134d463          	bge	x9,x19,0x5e8
 5e4:	00248493          	addi	x9,x9,2
 5e8:	012b4663          	blt	x22,x18,0x5f4
 5ec:	0144e463          	bltu	x9,x20,0x5f4
 5f0:	013b5463          	bge	x22,x19,0x5f8
 5f4:	00498993          	addi	x19,x19,4
 5f8:	0129c663          	blt	x19,x18,0x604
 5fc:	f09b7ae3          	bgeu	x22,x9,0x510
 600:	f12b58e3          	bge	x22,x18,0x510
 604:	003a0a13          	addi	x20,x20,3
 608:	f09ff06f          	jal	x0,0x510
 60c:	0124c7b3          	xor	x15,x9,x18
 610:	0137c7b3          	xor	x15,x15,x19
 614:	0147c7b3          	xor	x15,x15,x20
 618:	0167c533          	xor	x10,x15,x22
 61c:	ffffd7b7          	lui	x15,0xffffd
 620:	0e778793          	addi	x15,x15,231 # 0xffffd0e7
 624:	02f51863          	bne	x10,x15,0x654
 628:	02c12083          	lw	x1,44(x2)
 62c:	02812483          	lw	x9,40(x2)
 630:	02412903          	lw	x18,36(x2)
 634:	02012983          	lw	x19,32(x2)
 638:	01c12a03          	lw	x20,28(x2)
 63c:	01812a83          	lw	x21,24(x2)
 640:	01412b03          	lw	x22,20(x2)
 644:	01012b83          	lw	x23,16(x2)
 648:	00c12c03          	lw	x24,12(x2)
 64c:	03010113          	addi	x2,x2,48
 650:	00008067          	jalr	x0,0(x1)
 654:	bb1ff0ef          	jal	x1,0x204
 658:	ff010113          	addi	x2,x2,-16
 65c:	00112623          	sw	x1,12(x2)
 660:	e0000737          	lui	x14,0xe0000
 664:	005557b7          	lui	x15,0x555
 668:	50078793          	addi	x15,x15,1280 # 0x555500
 66c:	00f72023          	sw	x15,0(x14) # 0xe0000000
 670:	00400713          	addi	x14,x0,4
 674:	00072783          	lw	x15,0(x14)
 678:	00479793          	slli	x15,x15,0x4
 67c:	0057e793          	ori	x15,x15,5
 680:	00f72023          	sw	x15,0(x14)
 684:	00300593          	addi	x11,x0,3
 688:	00158013          	addi	x0,x11,1
 68c:	000587b3          	add	x15,x11,x0
 690:	00300713          	addi	x14,x0,3
 694:	02e79a63          	bne	x15,x14,0x6c8
 698:	07200693          	addi	x13,x0,114
 69c:	20200793          	addi	x15,x0,514
 6a0:	00f6c6b3          	xor	x13,x13,x15
 6a4:	00f6c7b3          	xor	x15,x13,x15
 6a8:	00f6c6b3          	xor	x13,x13,x15
 6ac:	20200713          	addi	x14,x0,514
 6b0:	00e69e63          	bne	x13,x14,0x6cc
 6b4:	07200713          	addi	x14,x0,114
 6b8:	00e79a63          	bne	x15,x14,0x6cc
 6bc:	00c12083          	lw	x1,12(x2)
 6c0:	01010113          	addi	x2,x2,16
 6c4:	00008067          	jalr	x0,0(x1)
 6c8:	b3dff0ef          	jal	x1,0x204
 6cc:	b39ff0ef          	jal	x1,0x204
 6d0:	e9010113          	addi	x2,x2,-368
 6d4:	16912623          	sw	x9,364(x2)
 6d8:	17212423          	sw	x18,360(x2)
 6dc:	17312223          	sw	x19,356(x2)
 6e0:	17412023          	sw	x20,352(x2)
 6e4:	15512e23          	sw	x21,348(x2)
 6e8:	15612c23          	sw	x22,344(x2)
 6ec:	15712a23          	sw	x23,340(x2)
 6f0:	15812823          	sw	x24,336(x2)
 6f4:	15912623          	sw	x25,332(x2)
 6f8:	00058913          	addi	x18,x11,0
 6fc:	00010f13          	addi	x30,x2,0
 700:	04010613          	addi	x12,x2,64
 704:	000f0713          	addi	x14,x30,0
 708:	00054783          	lbu	x15,0(x10)
 70c:	01879793          	slli	x15,x15,0x18
 710:	00154683          	lbu	x13,1(x10)
 714:	01069693          	slli	x13,x13,0x10
 718:	00d7e7b3          	or	x15,x15,x13
 71c:	00354683          	lbu	x13,3(x10)
 720:	00d7e7b3          	or	x15,x15,x13
 724:	00254683          	lbu	x13,2(x10)
 728:	00869693          	slli	x13,x13,0x8
 72c:	00d7e7b3          	or	x15,x15,x13
 730:	00f72023          	sw	x15,0(x14)
 734:	00450513          	addi	x10,x10,4
 738:	00470713          	addi	x14,x14,4
 73c:	fcc716e3          	bne	x14,x12,0x708
 740:	100f0593          	addi	x11,x30,256
 744:	000f0713          	addi	x14,x30,0
 748:	03472783          	lw	x15,52(x14)
 74c:	02072683          	lw	x13,32(x14)
 750:	00d7c7b3          	xor	x15,x15,x13
 754:	00872683          	lw	x13,8(x14)
 758:	00d7c7b3          	xor	x15,x15,x13
 75c:	00072683          	lw	x13,0(x14)
 760:	00d7c7b3          	xor	x15,x15,x13
 764:	00179693          	slli	x13,x15,0x1
 768:	01f7d613          	srli	x12,x15,0x1f
 76c:	00c6e6b3          	or	x13,x13,x12
 770:	04d72023          	sw	x13,64(x14)
 774:	00470713          	addi	x14,x14,4
 778:	fcb718e3          	bne	x14,x11,0x748
 77c:	00092c83          	lw	x25,0(x18)
 780:	00492c03          	lw	x24,4(x18)
 784:	00892b83          	lw	x23,8(x18)
 788:	00c92b03          	lw	x22,12(x18)
 78c:	01092a83          	lw	x21,16(x18)
 790:	140f0393          	addi	x7,x30,320
 794:	000a8813          	addi	x16,x21,0
 798:	000b0893          	addi	x17,x22,0
 79c:	000b8313          	addi	x6,x23,0
 7a0:	000c0613          	addi	x12,x24,0
 7a4:	000c8513          	addi	x10,x25,0
 7a8:	00000e13          	addi	x28,x0,0
 7ac:	00000713          	addi	x14,x0,0
 7b0:	01400293          	addi	x5,x0,20
 7b4:	00200e93          	addi	x29,x0,2
 7b8:	8f1bca37          	lui	x20,0x8f1bc
 7bc:	cdca0a13          	addi	x20,x20,-804 # 0x8f1bbcdc
 7c0:	00300f93          	addi	x31,x0,3
 7c4:	ca62c9b7          	lui	x19,0xca62c
 7c8:	1d698993          	addi	x19,x19,470 # 0xca62c1d6
 7cc:	6ed9f4b7          	lui	x9,0x6ed9f
 7d0:	ba148493          	addi	x9,x9,-1119 # 0x6ed9eba1
 7d4:	5a8285b7          	lui	x11,0x5a828
 7d8:	99958593          	addi	x11,x11,-1639 # 0x5a827999
 7dc:	0940006f          	jal	x0,0x870
 7e0:	00170713          	addi	x14,x14,1
 7e4:	00100e13          	addi	x28,x0,1
 7e8:	0900006f          	jal	x0,0x878
 7ec:	05f71e63          	bne	x14,x31,0x848
 7f0:	00551793          	slli	x15,x10,0x5
 7f4:	01b55693          	srli	x13,x10,0x1b
 7f8:	00d7e7b3          	or	x15,x15,x13
 7fc:	01380833          	add	x16,x16,x19
 800:	010787b3          	add	x15,x15,x16
 804:	006646b3          	xor	x13,x12,x6
 808:	0116c6b3          	xor	x13,x13,x17
 80c:	00d787b3          	add	x15,x15,x13
 810:	000f2683          	lw	x13,0(x30)
 814:	00d787b3          	add	x15,x15,x13
 818:	0300006f          	jal	x0,0x848
 81c:	00551793          	slli	x15,x10,0x5
 820:	01b55693          	srli	x13,x10,0x1b
 824:	00d7e7b3          	or	x15,x15,x13
 828:	00b80833          	add	x16,x16,x11
 82c:	010787b3          	add	x15,x15,x16
 830:	000f2683          	lw	x13,0(x30)
 834:	00d787b3          	add	x15,x15,x13
 838:	011346b3          	xor	x13,x6,x17
 83c:	00c6f6b3          	and	x13,x13,x12
 840:	0116c6b3          	xor	x13,x13,x17
 844:	00d787b3          	add	x15,x15,x13
 848:	00265813          	srli	x16,x12,0x2
 84c:	01e61693          	slli	x13,x12,0x1e
 850:	0106e6b3          	or	x13,x13,x16
 854:	004f0f13          	addi	x30,x30,4
 858:	00050613          	addi	x12,x10,0
 85c:	00088813          	addi	x16,x17,0
 860:	087f0263          	beq	x30,x7,0x8e4
 864:	00030893          	addi	x17,x6,0
 868:	00068313          	addi	x6,x13,0
 86c:	00078513          	addi	x10,x15,0
 870:	f65e08e3          	beq	x28,x5,0x7e0
 874:	001e0e13          	addi	x28,x28,1
 878:	03d70c63          	beq	x14,x29,0x8b0
 87c:	f6eee8e3          	bltu	x29,x14,0x7ec
 880:	f8070ee3          	beq	x14,x0,0x81c
 884:	00551793          	slli	x15,x10,0x5
 888:	01b55693          	srli	x13,x10,0x1b
 88c:	00d7e7b3          	or	x15,x15,x13
 890:	00980833          	add	x16,x16,x9
 894:	010787b3          	add	x15,x15,x16
 898:	006646b3          	xor	x13,x12,x6
 89c:	0116c6b3          	xor	x13,x13,x17
 8a0:	00d787b3          	add	x15,x15,x13
 8a4:	000f2683          	lw	x13,0(x30)
 8a8:	00d787b3          	add	x15,x15,x13
 8ac:	f9dff06f          	jal	x0,0x848
 8b0:	00551793          	slli	x15,x10,0x5
 8b4:	01b55693          	srli	x13,x10,0x1b
 8b8:	00d7e7b3          	or	x15,x15,x13
 8bc:	01480833          	add	x16,x16,x20
 8c0:	010787b3          	add	x15,x15,x16
 8c4:	000f2683          	lw	x13,0(x30)
 8c8:	00d787b3          	add	x15,x15,x13
 8cc:	011366b3          	or	x13,x6,x17
 8d0:	00c6f6b3          	and	x13,x13,x12
 8d4:	01137833          	and	x16,x6,x17
 8d8:	0106e6b3          	or	x13,x13,x16
 8dc:	00d787b3          	add	x15,x15,x13
 8e0:	f69ff06f          	jal	x0,0x848
 8e4:	019787b3          	add	x15,x15,x25
 8e8:	00f92023          	sw	x15,0(x18)
 8ec:	00ac0c33          	add	x24,x24,x10
 8f0:	01892223          	sw	x24,4(x18)
 8f4:	00db8bb3          	add	x23,x23,x13
 8f8:	01792423          	sw	x23,8(x18)
 8fc:	006b0b33          	add	x22,x22,x6
 900:	01692623          	sw	x22,12(x18)
 904:	011a8ab3          	add	x21,x21,x17
 908:	01592823          	sw	x21,16(x18)
 90c:	16c12483          	lw	x9,364(x2)
 910:	16812903          	lw	x18,360(x2)
 914:	16412983          	lw	x19,356(x2)
 918:	16012a03          	lw	x20,352(x2)
 91c:	15c12a83          	lw	x21,348(x2)
 920:	15812b03          	lw	x22,344(x2)
 924:	15412b83          	lw	x23,340(x2)
 928:	15012c03          	lw	x24,336(x2)
 92c:	14c12c83          	lw	x25,332(x2)
 930:	17010113          	addi	x2,x2,368
 934:	00008067          	jalr	x0,0(x1)
 938:	f9010113          	addi	x2,x2,-112
 93c:	06112623          	sw	x1,108(x2)
 940:	674527b7          	lui	x15,0x67452
 944:	30178793          	addi	x15,x15,769 # 0x67452301
 948:	00f12623          	sw	x15,12(x2)
 94c:	efcdb7b7          	lui	x15,0xefcdb
 950:	b8978793          	addi	x15,x15,-1143 # 0xefcdab89
 954:	00f12823          	sw	x15,16(x2)
 958:	98bae7b7          	lui	x15,0x98bae
 95c:	cfe78793          	addi	x15,x15,-770 # 0x98badcfe
 960:	00f12a23          	sw	x15,20(x2)
 964:	103257b7          	lui	x15,0x10325
 968:	47678793          	addi	x15,x15,1142 # 0x10325476
 96c:	00f12c23          	sw	x15,24(x2)
 970:	c3d2e7b7          	lui	x15,0xc3d2e
 974:	1f078793          	addi	x15,x15,496 # 0xc3d2e1f0
 978:	00f12e23          	sw	x15,28(x2)
 97c:	01810593          	addi	x11,x2,24
 980:	02010793          	addi	x15,x2,32
 984:	03900613          	addi	x12,x0,57
 988:	0180006f          	jal	x0,0x9a0
 98c:	05770713          	addi	x14,x14,87
 990:	00e783a3          	sb	x14,7(x15)
 994:	00455513          	srli	x10,x10,0x4
 998:	fff78793          	addi	x15,x15,-1
 99c:	00f58c63          	beq	x11,x15,0x9b4
 9a0:	00f57713          	andi	x14,x10,15
 9a4:	03070693          	addi	x13,x14,48
 9a8:	fed662e3          	bltu	x12,x13,0x98c
 9ac:	00d783a3          	sb	x13,7(x15)
 9b0:	fe5ff06f          	jal	x0,0x994
 9b4:	f8000793          	addi	x15,x0,-128
 9b8:	02f10423          	sb	x15,40(x2)
 9bc:	04000793          	addi	x15,x0,64
 9c0:	04f10fa3          	sb	x15,95(x2)
 9c4:	02910793          	addi	x15,x2,41
 9c8:	05f10713          	addi	x14,x2,95
 9cc:	00078023          	sb	x0,0(x15)
 9d0:	00178793          	addi	x15,x15,1
 9d4:	fee79ce3          	bne	x15,x14,0x9cc
 9d8:	00c10593          	addi	x11,x2,12
 9dc:	02010513          	addi	x10,x2,32
 9e0:	cf1ff0ef          	jal	x1,0x6d0
 9e4:	00c12503          	lw	x10,12(x2)
 9e8:	01855793          	srli	x15,x10,0x18
 9ec:	00879793          	slli	x15,x15,0x8
 9f0:	01055713          	srli	x14,x10,0x10
 9f4:	0ff77713          	andi	x14,x14,255
 9f8:	00f76733          	or	x14,x14,x15
 9fc:	00871713          	slli	x14,x14,0x8
 a00:	00855793          	srli	x15,x10,0x8
 a04:	0ff7f793          	andi	x15,x15,255
 a08:	00e7e7b3          	or	x15,x15,x14
 a0c:	00879793          	slli	x15,x15,0x8
 a10:	0ff57513          	andi	x10,x10,255
 a14:	00f56533          	or	x10,x10,x15
 a18:	06c12083          	lw	x1,108(x2)
 a1c:	07010113          	addi	x2,x2,112
 a20:	00008067          	jalr	x0,0(x1)
 a24:	ff010113          	addi	x2,x2,-16
 a28:	00112623          	sw	x1,12(x2)
 a2c:	e0000737          	lui	x14,0xe0000
 a30:	006667b7          	lui	x15,0x666
 a34:	60078793          	addi	x15,x15,1536 # 0x666600
 a38:	00f72023          	sw	x15,0(x14) # 0xe0000000
 a3c:	00400713          	addi	x14,x0,4
 a40:	00072783          	lw	x15,0(x14)
 a44:	00479793          	slli	x15,x15,0x4
 a48:	0067e793          	ori	x15,x15,6
 a4c:	00f72023          	sw	x15,0(x14)
 a50:	12345537          	lui	x10,0x12345
 a54:	67850513          	addi	x10,x10,1656 # 0x12345678
 a58:	ee1ff0ef          	jal	x1,0x938
 a5c:	7c2237b7          	lui	x15,0x7c223
 a60:	fb278793          	addi	x15,x15,-78 # 0x7c222fb2
 a64:	00f51863          	bne	x10,x15,0xa74
 a68:	00c12083          	lw	x1,12(x2)
 a6c:	01010113          	addi	x2,x2,16
 a70:	00008067          	jalr	x0,0(x1)
 a74:	f90ff0ef          	jal	x1,0x204

